target datalayout = "e-m:e-p270:32:32-p271:32:32-p272:64:64-i64:64-i128:128-f80:128-n8:16:32:64-S128"
target triple = "x86_64-unknown-linux-gnu"

%"class.icu_75::RegexPattern" = type { %"class.icu_75::UObject", ptr, ptr, i32, ptr, %"class.icu_75::UnicodeString", ptr, ptr, i32, i32, i32, i32, ptr, i32, i32, i32, ptr, i32, ptr, i8, ptr }
%"class.icu_75::UObject" = type { ptr }
%"class.icu_75::UnicodeString" = type { %"class.icu_75::Replaceable", %"union.icu_75::UnicodeString::StackBufferOrFields" }
%"class.icu_75::Replaceable" = type { %"class.icu_75::UObject" }
%"union.icu_75::UnicodeString::StackBufferOrFields" = type { %struct.anon.0, [32 x i8] }
%struct.anon.0 = type { i16, i32, i32, ptr }
%"struct.icu_75::Regex8BitSet" = type { [32 x i8] }
%"class.icu_75::RegexStaticSets" = type { [8 x i8], [13 x %"class.icu_75::UnicodeSet"], [13 x %"struct.icu_75::Regex8BitSet"], [3 x %"class.icu_75::UnicodeSet"], %"class.icu_75::UnicodeSet", ptr, ptr }
%"class.icu_75::UnicodeSet" = type <{ %"class.icu_75::UnicodeFilter", ptr, i32, i32, i8, [7 x i8], ptr, ptr, i32, [4 x i8], ptr, i32, [4 x i8], ptr, ptr, [25 x i32], [4 x i8] }>
%"class.icu_75::UnicodeFilter" = type { %"class.icu_75::UnicodeFunctor", %"class.icu_75::UnicodeMatcher" }
%"class.icu_75::UnicodeFunctor" = type { %"class.icu_75::UObject" }
%"class.icu_75::UnicodeMatcher" = type { ptr }

@_ZN6icu_7515RegexStaticSets11gStaticSetsE = external global ptr, align 8

; Function Attrs: mustprogress nounwind uwtable
define internal noundef signext i8 @_ZL9U_FAILURE10UErrorCode(i32 noundef %code) #0 {
entry:
  %code.addr = alloca i32, align 4
  store i32 %code, ptr %code.addr, align 4
  %0 = load i32, ptr %code.addr, align 4
  %cmp = icmp sgt i32 %0, 0
  %conv = zext i1 %cmp to i8
  ret i8 %conv
}

; Function Attrs: mustprogress uwtable
define noundef ptr @_ZNK6icu_7512RegexPattern11patternTextER10UErrorCode(ptr noundef nonnull align 8 dereferenceable(200) %this, ptr noundef nonnull align 4 dereferenceable(4) %status) unnamed_addr #1 align 2 {
entry:
  %retval = alloca ptr, align 8
  %this.addr = alloca ptr, align 8
  %status.addr = alloca ptr, align 8
  store ptr %this, ptr %this.addr, align 8
  store ptr %status, ptr %status.addr, align 8
  %this1 = load ptr, ptr %this.addr, align 8
  %0 = load ptr, ptr %status.addr, align 8
  %1 = load i32, ptr %0, align 4
  %call = call noundef signext i8 @_ZL9U_FAILURE10UErrorCode(i32 noundef %1)
  %tobool = icmp ne i8 %call, 0
  br i1 %tobool, label %if.then, label %if.end

if.then:                                          ; preds = %entry
  store ptr null, ptr %retval, align 8
  br label %return

if.end:                                           ; preds = %entry
  %2 = load ptr, ptr %status.addr, align 8
  store i32 0, ptr %2, align 4
  %fPattern = getelementptr inbounds %"class.icu_75::RegexPattern", ptr %this1, i32 0, i32 1
  %3 = load ptr, ptr %fPattern, align 8
  %cmp = icmp ne ptr %3, null
  br i1 %cmp, label %if.then2, label %if.else

if.then2:                                         ; preds = %if.end
  %fPattern3 = getelementptr inbounds %"class.icu_75::RegexPattern", ptr %this1, i32 0, i32 1
  %4 = load ptr, ptr %fPattern3, align 8
  store ptr %4, ptr %retval, align 8
  br label %return

if.else:                                          ; preds = %if.end
  %5 = load ptr, ptr %status.addr, align 8
  call void @_ZN6icu_7515RegexStaticSets11initGlobalsEP10UErrorCode(ptr noundef %5)
  %6 = load ptr, ptr @_ZN6icu_7515RegexStaticSets11gStaticSetsE, align 8
  %fEmptyText = getelementptr inbounds %"class.icu_75::RegexStaticSets", ptr %6, i32 0, i32 6
  %7 = load ptr, ptr %fEmptyText, align 8
  store ptr %7, ptr %retval, align 8
  br label %return

return:                                           ; preds = %if.else, %if.then2, %if.then
  %8 = load ptr, ptr %retval, align 8
  ret ptr %8
}