; Function Attrs: mustprogress uwtable
define noundef ptr @_ZNK6icu_7512RegexPattern11patternTextER10UErrorCode(ptr nocapture noundef nonnull readonly align 8 dereferenceable(200) %this, ptr noundef nonnull align 4 dereferenceable(4) %status) unnamed_addr #1 align 2 {
entry:
  %0 = load i32, ptr %status, align 4
  %cmp.i = icmp slt i32 %0, 1
  br i1 %cmp.i, label %if.end, label %return

if.end:                                           ; preds = %entry
  store i32 0, ptr %status, align 4
  %fPattern = getelementptr inbounds i8, ptr %this, i64 8
  %1 = load ptr, ptr %fPattern, align 8
  %cmp.not = icmp eq ptr %1, null
  br i1 %cmp.not, label %if.else, label %return

if.else:                                          ; preds = %if.end
  tail call void @_ZN6icu_7515RegexStaticSets11initGlobalsEP10UErrorCode(ptr noundef nonnull %status)
  %2 = load ptr, ptr @_ZN6icu_7515RegexStaticSets11gStaticSetsE, align 8
  %fEmptyText = getelementptr inbounds i8, ptr %2, i64 3832
  %3 = load ptr, ptr %fEmptyText, align 8
  br label %return

return:                                           ; preds = %if.end, %entry, %if.else
  %retval.0 = phi ptr [ %3, %if.else ], [ null, %entry ], [ %1, %if.end ]
  ret ptr %retval.0
}